target datalayout = "e-m:e-p270:32:32-p271:32:32-p272:64:64-i64:64-i128:128-f80:128-n8:16:32:64-S128"
target triple = "x86_64-pc-linux-gnu"

%"class.euf::relevancy" = type { ptr, i8, %class.svector, %class.svector.0, i32, %class.svector.2, %"class.sat::clause_allocator", %class.ptr_vector.7, %class.svector.2, %class.vector.9, i32, %class.svector.10, %class.ptr_vector.12, %class.ptr_vector.12 }
%class.svector = type { %class.vector }
%class.vector = type { ptr }
%class.svector.0 = type { %class.vector.1 }
%class.vector.1 = type { ptr }
%"class.sat::clause_allocator" = type { %class.sat_allocator, %class.id_gen }
%class.sat_allocator = type { ptr, i64, %class.ptr_vector, ptr, [65 x %class.ptr_vector.5] }
%class.ptr_vector = type { %class.vector.4 }
%class.vector.4 = type { ptr }
%class.ptr_vector.5 = type { %class.vector.6 }
%class.vector.6 = type { ptr }
%class.id_gen = type { i32, %class.svector.0 }
%class.ptr_vector.7 = type { %class.vector.8 }
%class.vector.8 = type { ptr }
%class.svector.2 = type { %class.vector.3 }
%class.vector.3 = type { ptr }
%class.vector.9 = type { ptr }
%class.svector.10 = type { %class.vector.11 }
%class.vector.11 = type { ptr }
%class.ptr_vector.12 = type { %class.vector.13 }
%class.vector.13 = type { ptr }
%"class.euf::justification" = type { i32, %union.anon.32, %union.anon.33 }
%union.anon.32 = type { ptr }
%union.anon.33 = type { ptr }
%"class.euf::enode" = type { ptr, i8, i8, i8, i8, i8, i8, i8, i8, i8, i32, i32, i32, i32, i32, i32, %class.ptr_vector.12, ptr, ptr, ptr, ptr, %class.id_var_list, %"class.euf::justification", %"class.euf::justification", i32, i8, %class.approx_set, %class.approx_set, [0 x ptr] }
%class.id_var_list = type { i32, ptr }
%class.approx_set = type { %class.approx_set_tpl.192 }
%class.approx_set_tpl.192 = type { i64 }

; Function Attrs: mustprogress nounwind uwtable
define linkonce_odr hidden noundef zeroext i1 @_ZNK3euf5enode11is_relevantEv(ptr noundef nonnull align 8 dereferenceable(176) %0) #6 comdat align 2 {
  %2 = alloca ptr, align 8
  store ptr %0, ptr %2, align 8, !tbaa !115
  %3 = load ptr, ptr %2, align 8
  %4 = getelementptr inbounds nuw %"class.euf::enode", ptr %3, i32 0, i32 9
  %5 = load i8, ptr %4, align 8, !tbaa !476, !range !43, !noundef !44
  %6 = trunc i8 %5 to i1
  ret i1 %6
}

; Function Attrs: mustprogress uwtable
define linkonce_odr hidden noundef zeroext i1 @_ZNK3euf9relevancy11is_relevantEPNS_5enodeE(ptr noundef nonnull align 8 dereferenceable(672) %0, ptr noundef %1) #4 comdat align 2 {
  %3 = alloca ptr, align 8
  %4 = alloca ptr, align 8
  store ptr %0, ptr %3, align 8, !tbaa !3
  store ptr %1, ptr %4, align 8, !tbaa !115
  %5 = load ptr, ptr %3, align 8
  %6 = getelementptr inbounds nuw %"class.euf::relevancy", ptr %5, i32 0, i32 1
  %7 = load i8, ptr %6, align 8, !tbaa !10, !range !43, !noundef !44
  %8 = trunc i8 %7 to i1
  br i1 %8, label %9, label %12

9:                                                ; preds = %2
  %10 = load ptr, ptr %4, align 8, !tbaa !115
  %11 = call noundef zeroext i1 @_ZNK3euf5enode11is_relevantEv(ptr noundef nonnull align 8 dereferenceable(176) %10)
  br label %12

12:                                               ; preds = %9, %2
  %13 = phi i1 [ true, %2 ], [ %11, %9 ]
  ret i1 %13
}

; Function Attrs: mustprogress uwtable
define hidden void @_ZN3euf9relevancy5mergeEPNS_5enodeES2_(ptr noundef nonnull align 8 dereferenceable(672) %0, ptr noundef %1, ptr noundef %2) #4 align 2 {
  %4 = alloca ptr, align 8
  %5 = alloca ptr, align 8
  %6 = alloca ptr, align 8
  store ptr %0, ptr %4, align 8, !tbaa !3
  store ptr %1, ptr %5, align 8, !tbaa !115
  store ptr %2, ptr %6, align 8, !tbaa !115
  %7 = load ptr, ptr %4, align 8
  %8 = load ptr, ptr %5, align 8, !tbaa !115
  %9 = call noundef zeroext i1 @_ZNK3euf9relevancy11is_relevantEPNS_5enodeE(ptr noundef nonnull align 8 dereferenceable(672) %7, ptr noundef %8)
  br i1 %9, label %10, label %12

10:                                               ; preds = %3
  %11 = load ptr, ptr %6, align 8, !tbaa !115
  call void @_ZN3euf9relevancy13mark_relevantEPNS_5enodeE(ptr noundef nonnull align 8 dereferenceable(672) %7, ptr noundef %11)
  br label %18

12:                                               ; preds = %3
  %13 = load ptr, ptr %6, align 8, !tbaa !115
  %14 = call noundef zeroext i1 @_ZNK3euf9relevancy11is_relevantEPNS_5enodeE(ptr noundef nonnull align 8 dereferenceable(672) %7, ptr noundef %13)
  br i1 %14, label %15, label %17

15:                                               ; preds = %12
  %16 = load ptr, ptr %5, align 8, !tbaa !115
  call void @_ZN3euf9relevancy13mark_relevantEPNS_5enodeE(ptr noundef nonnull align 8 dereferenceable(672) %7, ptr noundef %16)
  br label %17

17:                                               ; preds = %15, %12
  br label %18

18:                                               ; preds = %17, %10
  ret void
}