; Function Attrs: mustprogress uwtable
define hidden void @_ZN3euf9relevancy5mergeEPNS_5enodeES2_(ptr noundef nonnull align 8 dereferenceable(672) %0, ptr noundef %1, ptr noundef %2) local_unnamed_addr #3 align 2 {
  %4 = getelementptr inbounds nuw i8, ptr %0, i64 8
  %5 = load i8, ptr %4, align 8, !tbaa !3, !range !40, !noundef !41
  %6 = trunc nuw i8 %5 to i1
  br i1 %6, label %_ZNK3euf9relevancy11is_relevantEPNS_5enodeE.exit, label %.sink.split

_ZNK3euf9relevancy11is_relevantEPNS_5enodeE.exit: ; preds = %3
  %7 = getelementptr inbounds nuw i8, ptr %1, i64 16
  %8 = load i8, ptr %7, align 8, !tbaa !87, !range !40, !noundef !41
  %9 = trunc nuw i8 %8 to i1
  br i1 %9, label %.sink.split, label %_ZNK3euf9relevancy11is_relevantEPNS_5enodeE.exit5

_ZNK3euf9relevancy11is_relevantEPNS_5enodeE.exit5: ; preds = %_ZNK3euf9relevancy11is_relevantEPNS_5enodeE.exit
  %10 = getelementptr inbounds nuw i8, ptr %2, i64 16
  %11 = load i8, ptr %10, align 8, !tbaa !87, !range !40, !noundef !41
  %12 = trunc nuw i8 %11 to i1
  br i1 %12, label %.sink.split, label %13

.sink.split:                                      ; preds = %_ZNK3euf9relevancy11is_relevantEPNS_5enodeE.exit5, %_ZNK3euf9relevancy11is_relevantEPNS_5enodeE.exit, %3
  %.sink = phi ptr [ %2, %3 ], [ %2, %_ZNK3euf9relevancy11is_relevantEPNS_5enodeE.exit ], [ %1, %_ZNK3euf9relevancy11is_relevantEPNS_5enodeE.exit5 ]
  tail call void @_ZN3euf9relevancy13mark_relevantEPNS_5enodeE(ptr noundef nonnull align 8 dereferenceable(672) %0, ptr noundef %.sink)
  br label %13

13:                                               ; preds = %.sink.split, %_ZNK3euf9relevancy11is_relevantEPNS_5enodeE.exit5
  ret void
}